target datalayout = "e-m:e-p270:32:32-p271:32:32-p272:64:64-i64:64-i128:128-f80:128-n8:16:32:64-S128"
target triple = "x86_64-pc-linux-gnu"

%"struct.smt::almost_cg_table::cg_hash" = type { ptr, ptr }
%"struct.smt::almost_cg_table::cg_eq" = type { ptr, ptr }
%"class.smt::almost_cg_table" = type { %class.region, ptr, ptr, %class.map }
%class.region = type { ptr, ptr, ptr, ptr, ptr }
%class.map = type { %class.table2map }
%class.table2map = type { %class.core_hashtable }
%class.core_hashtable = type <{ %"struct.table2map<default_map_entry<smt::enode *, list<smt::enode *> *>, smt::almost_cg_table::cg_hash, smt::almost_cg_table::cg_eq>::entry_hash_proc", %"struct.table2map<default_map_entry<smt::enode *, list<smt::enode *> *>, smt::almost_cg_table::cg_hash, smt::almost_cg_table::cg_eq>::entry_eq_proc", ptr, i32, i32, i32, [4 x i8] }>
%"struct.table2map<default_map_entry<smt::enode *, list<smt::enode *> *>, smt::almost_cg_table::cg_hash, smt::almost_cg_table::cg_eq>::entry_hash_proc" = type { %"struct.smt::almost_cg_table::cg_hash" }
%"struct.table2map<default_map_entry<smt::enode *, list<smt::enode *> *>, smt::almost_cg_table::cg_hash, smt::almost_cg_table::cg_eq>::entry_eq_proc" = type { %"struct.smt::almost_cg_table::cg_eq" }
%struct._key_data = type { ptr, ptr }
%class.list = type { ptr, ptr }
%class.default_hash_entry = type { i32, i32, %struct._key_data }

; Function Attrs: mustprogress nounwind uwtable
define linkonce_odr hidden noundef nonnull align 8 dereferenceable(16) ptr @_ZN18default_hash_entryI9_key_dataIPN3smt5enodeEP4listIS3_EEE8get_dataEv(ptr noundef nonnull align 8 dereferenceable(24) %0) #4 comdat align 2 {
  %2 = alloca ptr, align 8
  store ptr %0, ptr %2, align 8, !tbaa !93
  %3 = load ptr, ptr %2, align 8
  %4 = getelementptr inbounds nuw %class.default_hash_entry, ptr %3, i32 0, i32 2
  ret ptr %4
}

; Function Attrs: inlinehint mustprogress nounwind uwtable
define linkonce_odr hidden void @_ZdlPvR6region(ptr noundef %0, ptr noundef nonnull align 8 dereferenceable(40) %1) #8 comdat {
  %3 = alloca ptr, align 8
  %4 = alloca ptr, align 8
  store ptr %0, ptr %3, align 8, !tbaa !90
  store ptr %1, ptr %4, align 8, !tbaa !85
  ret void
}

; Function Attrs: mustprogress uwtable
define linkonce_odr hidden void @_ZN9table2mapI17default_map_entryIPN3smt5enodeEP4listIS3_EENS1_15almost_cg_table7cg_hashENS8_5cg_eqEE6insertERKS3_RKS6_(ptr noundef nonnull align 8 dereferenceable(56) %0, ptr noundef nonnull align 8 dereferenceable(8) %1, ptr noundef nonnull align 8 dereferenceable(8) %2) #6 comdat align 2 {
  %4 = alloca ptr, align 8
  %5 = alloca ptr, align 8
  %6 = alloca ptr, align 8
  %7 = alloca %struct._key_data, align 8
  store ptr %0, ptr %4, align 8, !tbaa !75
  store ptr %1, ptr %5, align 8, !tbaa !72
  store ptr %2, ptr %6, align 8, !tbaa !91
  %8 = load ptr, ptr %4, align 8
  %9 = getelementptr inbounds nuw %class.table2map, ptr %8, i32 0, i32 0
  call void @llvm.lifetime.start.p0(i64 16, ptr %7) #3
  %10 = getelementptr inbounds nuw %struct._key_data, ptr %7, i32 0, i32 0
  %11 = load ptr, ptr %5, align 8, !tbaa !72
  %12 = load ptr, ptr %11, align 8, !tbaa !24
  store ptr %12, ptr %10, align 8, !tbaa !82
  %13 = getelementptr inbounds nuw %struct._key_data, ptr %7, i32 0, i32 1
  %14 = load ptr, ptr %6, align 8, !tbaa !91
  %15 = load ptr, ptr %14, align 8, !tbaa !78
  store ptr %15, ptr %13, align 8, !tbaa !80
  call void @_ZN14core_hashtableI17default_map_entryIPN3smt5enodeEP4listIS3_EEN9table2mapIS7_NS1_15almost_cg_table7cg_hashENS9_5cg_eqEE15entry_hash_procENSC_13entry_eq_procEE6insertEO9_key_dataIS3_S6_E(ptr noundef nonnull align 8 dereferenceable(52) %9, ptr noundef nonnull align 8 dereferenceable(16) %7)
  call void @llvm.lifetime.end.p0(i64 16, ptr %7) #3
  ret void
}

; Function Attrs: mustprogress nounwind uwtable
define linkonce_odr hidden void @_ZN4listIPN3smt5enodeEEC2ERKS2_PS3_(ptr noundef nonnull align 8 dereferenceable(16) %0, ptr noundef nonnull align 8 dereferenceable(8) %1, ptr noundef %2) unnamed_addr #4 comdat align 2 {
  %4 = alloca ptr, align 8
  %5 = alloca ptr, align 8
  %6 = alloca ptr, align 8
  store ptr %0, ptr %4, align 8, !tbaa !78
  store ptr %1, ptr %5, align 8, !tbaa !72
  store ptr %2, ptr %6, align 8, !tbaa !78
  %7 = load ptr, ptr %4, align 8
  %8 = getelementptr inbounds nuw %class.list, ptr %7, i32 0, i32 0
  %9 = load ptr, ptr %5, align 8, !tbaa !72
  %10 = load ptr, ptr %9, align 8, !tbaa !24
  store ptr %10, ptr %8, align 8, !tbaa !87
  %11 = getelementptr inbounds nuw %class.list, ptr %7, i32 0, i32 1
  %12 = load ptr, ptr %6, align 8, !tbaa !78
  store ptr %12, ptr %11, align 8, !tbaa !89
  ret void
}

; Function Attrs: inlinehint mustprogress uwtable
define linkonce_odr hidden noundef ptr @_ZnwmR6region(i64 noundef %0, ptr noundef nonnull align 8 dereferenceable(40) %1) #7 comdat {
  %3 = alloca i64, align 8
  %4 = alloca ptr, align 8
  store i64 %0, ptr %3, align 8, !tbaa !83
  store ptr %1, ptr %4, align 8, !tbaa !85
  %5 = load ptr, ptr %4, align 8, !tbaa !85
  %6 = load i64, ptr %3, align 8, !tbaa !83
  %7 = call noundef ptr @_ZN6region8allocateEm(ptr noundef nonnull align 8 dereferenceable(40) %5, i64 noundef %6)
  ret ptr %7
}

; Function Attrs: mustprogress uwtable
define linkonce_odr hidden noundef ptr @_ZNK9table2mapI17default_map_entryIPN3smt5enodeEP4listIS3_EENS1_15almost_cg_table7cg_hashENS8_5cg_eqEE9find_coreERKS3_(ptr noundef nonnull align 8 dereferenceable(56) %0, ptr noundef nonnull align 8 dereferenceable(8) %1) #6 comdat align 2 {
  %3 = alloca ptr, align 8
  %4 = alloca ptr, align 8
  %5 = alloca %struct._key_data, align 8
  store ptr %0, ptr %3, align 8, !tbaa !75
  store ptr %1, ptr %4, align 8, !tbaa !72
  %6 = load ptr, ptr %3, align 8
  %7 = getelementptr inbounds nuw %class.table2map, ptr %6, i32 0, i32 0
  call void @llvm.lifetime.start.p0(i64 16, ptr %5) #3
  %8 = getelementptr inbounds nuw %struct._key_data, ptr %5, i32 0, i32 0
  %9 = load ptr, ptr %4, align 8, !tbaa !72
  %10 = load ptr, ptr %9, align 8, !tbaa !24
  store ptr %10, ptr %8, align 8, !tbaa !82
  %11 = getelementptr inbounds nuw %struct._key_data, ptr %5, i32 0, i32 1
  store ptr null, ptr %11, align 8, !tbaa !80
  %12 = call noundef ptr @_ZNK14core_hashtableI17default_map_entryIPN3smt5enodeEP4listIS3_EEN9table2mapIS7_NS1_15almost_cg_table7cg_hashENS9_5cg_eqEE15entry_hash_procENSC_13entry_eq_procEE9find_coreERK9_key_dataIS3_S6_E(ptr noundef nonnull align 8 dereferenceable(52) %7, ptr noundef nonnull align 8 dereferenceable(16) %5)
  call void @llvm.lifetime.end.p0(i64 16, ptr %5) #3
  ret ptr %12
}

; Function Attrs: mustprogress uwtable
define hidden void @_ZN3smt15almost_cg_table6insertEPNS_5enodeE(ptr noundef nonnull align 8 dereferenceable(112) %0, ptr noundef %1) #6 align 2 personality ptr @__gxx_personality_v0 {
  %3 = alloca ptr, align 8
  %4 = alloca ptr, align 8
  %5 = alloca ptr, align 8
  %6 = alloca ptr, align 8
  %7 = alloca ptr, align 8
  %8 = alloca i32, align 4
  %9 = alloca ptr, align 8
  store ptr %0, ptr %3, align 8, !tbaa !58
  store ptr %1, ptr %4, align 8, !tbaa !24
  %10 = load ptr, ptr %3, align 8
  call void @llvm.lifetime.start.p0(i64 8, ptr %5) #3
  %11 = getelementptr inbounds nuw %"class.smt::almost_cg_table", ptr %10, i32 0, i32 3
  %12 = call noundef ptr @_ZNK9table2mapI17default_map_entryIPN3smt5enodeEP4listIS3_EENS1_15almost_cg_table7cg_hashENS8_5cg_eqEE9find_coreERKS3_(ptr noundef nonnull align 8 dereferenceable(56) %11, ptr noundef nonnull align 8 dereferenceable(8) %4)
  store ptr %12, ptr %5, align 8, !tbaa !77
  %13 = load ptr, ptr %5, align 8, !tbaa !77
  %14 = icmp eq ptr %13, null
  br i1 %14, label %15, label %24

15:                                               ; preds = %2
  call void @llvm.lifetime.start.p0(i64 8, ptr %6) #3
  %16 = getelementptr inbounds nuw %"class.smt::almost_cg_table", ptr %10, i32 0, i32 0
  %17 = call noundef ptr @_ZnwmR6region(i64 noundef 16, ptr noundef nonnull align 8 dereferenceable(40) %16)
  invoke void @_ZN4listIPN3smt5enodeEEC2ERKS2_PS3_(ptr noundef nonnull align 8 dereferenceable(16) %17, ptr noundef nonnull align 8 dereferenceable(8) %4, ptr noundef null)
          to label %18 unwind label %20

18:                                               ; preds = %15
  store ptr %17, ptr %6, align 8, !tbaa !78
  %19 = getelementptr inbounds nuw %"class.smt::almost_cg_table", ptr %10, i32 0, i32 3
  call void @_ZN9table2mapI17default_map_entryIPN3smt5enodeEP4listIS3_EENS1_15almost_cg_table7cg_hashENS8_5cg_eqEE6insertERKS3_RKS6_(ptr noundef nonnull align 8 dereferenceable(56) %19, ptr noundef nonnull align 8 dereferenceable(8) %4, ptr noundef nonnull align 8 dereferenceable(8) %6)
  call void @llvm.lifetime.end.p0(i64 8, ptr %6) #3
  br label %41

20:                                               ; preds = %15
  %21 = landingpad { ptr, i32 }
          cleanup
  %22 = extractvalue { ptr, i32 } %21, 0
  store ptr %22, ptr %7, align 8
  %23 = extractvalue { ptr, i32 } %21, 1
  store i32 %23, ptr %8, align 4
  call void @_ZdlPvR6region(ptr noundef %17, ptr noundef nonnull align 8 dereferenceable(40) %16) #3
  call void @llvm.lifetime.end.p0(i64 8, ptr %6) #3
  br label %42

24:                                               ; preds = %2
  call void @llvm.lifetime.start.p0(i64 8, ptr %9) #3
  %25 = getelementptr inbounds nuw %"class.smt::almost_cg_table", ptr %10, i32 0, i32 0
  %26 = call noundef ptr @_ZnwmR6region(i64 noundef 16, ptr noundef nonnull align 8 dereferenceable(40) %25)
  %27 = load ptr, ptr %5, align 8, !tbaa !77
  %28 = invoke noundef nonnull align 8 dereferenceable(16) ptr @_ZN18default_hash_entryI9_key_dataIPN3smt5enodeEP4listIS3_EEE8get_dataEv(ptr noundef nonnull align 8 dereferenceable(24) %27)
          to label %29 unwind label %37

29:                                               ; preds = %24
  %30 = getelementptr inbounds nuw %struct._key_data, ptr %28, i32 0, i32 1
  %31 = load ptr, ptr %30, align 8, !tbaa !80
  invoke void @_ZN4listIPN3smt5enodeEEC2ERKS2_PS3_(ptr noundef nonnull align 8 dereferenceable(16) %26, ptr noundef nonnull align 8 dereferenceable(8) %4, ptr noundef %31)
          to label %32 unwind label %37

32:                                               ; preds = %29
  store ptr %26, ptr %9, align 8, !tbaa !78
  %33 = load ptr, ptr %9, align 8, !tbaa !78
  %34 = load ptr, ptr %5, align 8, !tbaa !77
  %35 = call noundef nonnull align 8 dereferenceable(16) ptr @_ZN18default_hash_entryI9_key_dataIPN3smt5enodeEP4listIS3_EEE8get_dataEv(ptr noundef nonnull align 8 dereferenceable(24) %34)
  %36 = getelementptr inbounds nuw %struct._key_data, ptr %35, i32 0, i32 1
  store ptr %33, ptr %36, align 8, !tbaa !80
  call void @llvm.lifetime.end.p0(i64 8, ptr %9) #3
  br label %41

37:                                               ; preds = %29, %24
  %38 = landingpad { ptr, i32 }
          cleanup
  %39 = extractvalue { ptr, i32 } %38, 0
  store ptr %39, ptr %7, align 8
  %40 = extractvalue { ptr, i32 } %38, 1
  store i32 %40, ptr %8, align 4
  call void @_ZdlPvR6region(ptr noundef %26, ptr noundef nonnull align 8 dereferenceable(40) %25) #3
  call void @llvm.lifetime.end.p0(i64 8, ptr %9) #3
  br label %42

41:                                               ; preds = %32, %18
  call void @llvm.lifetime.end.p0(i64 8, ptr %5) #3
  ret void

42:                                               ; preds = %37, %20
  call void @llvm.lifetime.end.p0(i64 8, ptr %5) #3
  br label %43

43:                                               ; preds = %42
  %44 = load ptr, ptr %7, align 8
  %45 = load i32, ptr %8, align 4
  %46 = insertvalue { ptr, i32 } poison, ptr %44, 0
  %47 = insertvalue { ptr, i32 } %46, i32 %45, 1
  resume { ptr, i32 } %47
}