; Function Attrs: mustprogress uwtable
define hidden void @_ZN3smt15almost_cg_table6insertEPNS_5enodeE(ptr noundef nonnull align 8 dereferenceable(112) %0, ptr noundef %1) local_unnamed_addr #5 align 2 personality ptr @__gxx_personality_v0 {
  %3 = alloca %struct._key_data, align 8
  %4 = alloca %struct._key_data, align 8
  %5 = getelementptr inbounds nuw i8, ptr %0, i64 56
  call void @llvm.lifetime.start.p0(i64 16, ptr nonnull %4) #8
  store ptr %1, ptr %4, align 8, !tbaa !65
  %6 = getelementptr inbounds nuw i8, ptr %4, i64 8
  store ptr null, ptr %6, align 8, !tbaa !66
  %7 = call noundef ptr @_ZNK14core_hashtableI17default_map_entryIPN3smt5enodeEP4listIS3_EEN9table2mapIS7_NS1_15almost_cg_table7cg_hashENS9_5cg_eqEE15entry_hash_procENSC_13entry_eq_procEE9find_coreERK9_key_dataIS3_S6_E(ptr noundef nonnull align 8 dereferenceable(56) %5, ptr noundef nonnull align 8 dereferenceable(16) %4)
  call void @llvm.lifetime.end.p0(i64 16, ptr nonnull %4) #8
  %8 = icmp eq ptr %7, null
  %9 = call noundef ptr @_ZN6region8allocateEm(ptr noundef nonnull align 8 dereferenceable(40) %0, i64 noundef 16)
  br i1 %8, label %10, label %13

10:                                               ; preds = %2
  store ptr %1, ptr %9, align 8, !tbaa !67
  %11 = getelementptr inbounds nuw i8, ptr %9, i64 8
  store ptr null, ptr %11, align 8, !tbaa !69
  call void @llvm.lifetime.start.p0(i64 16, ptr nonnull %3) #8
  store ptr %1, ptr %3, align 8, !tbaa !65
  %12 = getelementptr inbounds nuw i8, ptr %3, i64 8
  store ptr %9, ptr %12, align 8, !tbaa !66
  call void @_ZN14core_hashtableI17default_map_entryIPN3smt5enodeEP4listIS3_EEN9table2mapIS7_NS1_15almost_cg_table7cg_hashENS9_5cg_eqEE15entry_hash_procENSC_13entry_eq_procEE6insertEO9_key_dataIS3_S6_E(ptr noundef nonnull align 8 dereferenceable(56) %5, ptr noundef nonnull align 8 dereferenceable(16) %3)
  call void @llvm.lifetime.end.p0(i64 16, ptr nonnull %3) #8
  br label %17

13:                                               ; preds = %2
  %14 = getelementptr inbounds nuw i8, ptr %7, i64 16
  %15 = load ptr, ptr %14, align 8, !tbaa !66
  store ptr %1, ptr %9, align 8, !tbaa !67
  %16 = getelementptr inbounds nuw i8, ptr %9, i64 8
  store ptr %15, ptr %16, align 8, !tbaa !69
  store ptr %9, ptr %14, align 8, !tbaa !66
  br label %17

17:                                               ; preds = %13, %10
  ret void
}